target datalayout = "e-m:e-p270:32:32-p271:32:32-p272:64:64-i64:64-i128:128-f80:128-n8:16:32:64-S128"
target triple = "x86_64-unknown-linux-gnu"

%"class.std::set.0" = type { %"class.std::_Rb_tree.1" }
%"class.std::_Rb_tree.1" = type { %"struct.std::_Rb_tree<QuantLib::Observer *, QuantLib::Observer *, std::_Identity<QuantLib::Observer *>, std::less<QuantLib::Observer *>>::_Rb_tree_impl" }
%"struct.std::_Rb_tree<QuantLib::Observer *, QuantLib::Observer *, std::_Identity<QuantLib::Observer *>, std::less<QuantLib::Observer *>>::_Rb_tree_impl" = type { [8 x i8], %"struct.std::_Rb_tree_header" }
%"struct.std::_Rb_tree_header" = type { %"struct.std::_Rb_tree_node_base", i64 }
%"struct.std::_Rb_tree_node_base" = type { i32, ptr, ptr, ptr }
%"class.std::set" = type { %"class.std::_Rb_tree" }
%"class.std::_Rb_tree" = type { %"struct.std::_Rb_tree<boost::shared_ptr<QuantLib::Observable>, boost::shared_ptr<QuantLib::Observable>, std::_Identity<boost::shared_ptr<QuantLib::Observable>>, std::less<boost::shared_ptr<QuantLib::Observable>>>::_Rb_tree_impl" }
%"struct.std::_Rb_tree<boost::shared_ptr<QuantLib::Observable>, boost::shared_ptr<QuantLib::Observable>, std::_Identity<boost::shared_ptr<QuantLib::Observable>>, std::less<boost::shared_ptr<QuantLib::Observable>>>::_Rb_tree_impl" = type { [8 x i8], %"struct.std::_Rb_tree_header" }
%"class.boost::detail::shared_count" = type { ptr }
%"class.QuantLib::Observable" = type { ptr, %"class.std::set.0" }
%"class.QuantLib::FFTEngine" = type { %"class.QuantLib::OneAssetOption::engine", %"class.boost::shared_ptr.18", double, %"class.std::map.19" }
%"class.QuantLib::OneAssetOption::engine" = type { %"class.QuantLib::GenericEngine" }
%"class.QuantLib::GenericEngine" = type { %"class.QuantLib::PricingEngine", %"class.QuantLib::Observer", %"class.QuantLib::Option::arguments", %"class.QuantLib::OneAssetOption::results" }
%"class.QuantLib::PricingEngine" = type { %"class.QuantLib::Observable" }
%"class.QuantLib::Observer" = type { ptr, %"class.std::set" }
%"class.QuantLib::Option::arguments" = type { %"class.QuantLib::PricingEngine::arguments", %"class.boost::shared_ptr.16", %"class.boost::shared_ptr.17" }
%"class.QuantLib::PricingEngine::arguments" = type { ptr }
%"class.boost::shared_ptr.16" = type { ptr, %"class.boost::detail::shared_count" }
%"class.boost::shared_ptr.17" = type { ptr, %"class.boost::detail::shared_count" }
%"class.QuantLib::OneAssetOption::results" = type { %"class.QuantLib::Instrument::results", %"class.QuantLib::Greeks", %"class.QuantLib::MoreGreeks" }
%"class.QuantLib::Instrument::results" = type { %"class.QuantLib::PricingEngine::results", double, double, %"class.QuantLib::Date", %"class.std::map" }
%"class.QuantLib::PricingEngine::results" = type { ptr }
%"class.QuantLib::Date" = type { i64 }
%"class.std::map" = type { %"class.std::_Rb_tree.10" }
%"class.std::_Rb_tree.10" = type { %"struct.std::_Rb_tree<std::__cxx11::basic_string<char>, std::pair<const std::__cxx11::basic_string<char>, boost::any>, std::_Select1st<std::pair<const std::__cxx11::basic_string<char>, boost::any>>, std::less<std::__cxx11::basic_string<char>>>::_Rb_tree_impl" }
%"struct.std::_Rb_tree<std::__cxx11::basic_string<char>, std::pair<const std::__cxx11::basic_string<char>, boost::any>, std::_Select1st<std::pair<const std::__cxx11::basic_string<char>, boost::any>>, std::less<std::__cxx11::basic_string<char>>>::_Rb_tree_impl" = type { [8 x i8], %"struct.std::_Rb_tree_header" }
%"class.QuantLib::Greeks" = type { %"class.QuantLib::PricingEngine::results", double, double, double, double, double, double }
%"class.QuantLib::MoreGreeks" = type { %"class.QuantLib::PricingEngine::results", double, double, double, double, double }
%"class.boost::shared_ptr.18" = type { ptr, %"class.boost::detail::shared_count" }
%"class.std::map.19" = type { %"class.std::_Rb_tree.20" }
%"class.std::_Rb_tree.20" = type { %"struct.std::_Rb_tree<QuantLib::Date, std::pair<const QuantLib::Date, std::map<boost::shared_ptr<QuantLib::StrikedTypePayoff>, double>>, std::_Select1st<std::pair<const QuantLib::Date, std::map<boost::shared_ptr<QuantLib::StrikedTypePayoff>, double>>>, std::less<QuantLib::Date>>::_Rb_tree_impl" }
%"struct.std::_Rb_tree<QuantLib::Date, std::pair<const QuantLib::Date, std::map<boost::shared_ptr<QuantLib::StrikedTypePayoff>, double>>, std::_Select1st<std::pair<const QuantLib::Date, std::map<boost::shared_ptr<QuantLib::StrikedTypePayoff>, double>>>, std::less<QuantLib::Date>>::_Rb_tree_impl" = type { [8 x i8], %"struct.std::_Rb_tree_header" }

; Function Attrs: mustprogress nounwind uwtable
define linkonce_odr noundef ptr @_ZNKSt8_Rb_treeIN8QuantLib4DateESt4pairIKS1_St3mapIN5boost10shared_ptrINS0_17StrikedTypePayoffEEEdSt4lessIS8_ESaIS2_IKS8_dEEEESt10_Select1stISF_ES9_IS1_ESaISF_EE9_M_mbeginEv(ptr noundef nonnull align 8 dereferenceable(48) %this) #1 comdat align 2 {
entry:
  %this.addr = alloca ptr, align 8
  store ptr %this, ptr %this.addr, align 8, !tbaa !3
  %this1 = load ptr, ptr %this.addr, align 8
  %_M_impl = getelementptr inbounds nuw %"class.std::_Rb_tree.20", ptr %this1, i32 0, i32 0
  %add.ptr = getelementptr inbounds i8, ptr %_M_impl, i64 8
  %_M_header = getelementptr inbounds nuw %"struct.std::_Rb_tree_header", ptr %add.ptr, i32 0, i32 0
  %_M_parent = getelementptr inbounds nuw %"struct.std::_Rb_tree_node_base", ptr %_M_header, i32 0, i32 1
  %0 = load ptr, ptr %_M_parent, align 8, !tbaa !129
  ret ptr %0
}

; Function Attrs: mustprogress nounwind uwtable
define linkonce_odr void @_ZNSt15_Rb_tree_header8_M_resetEv(ptr noundef nonnull align 8 dereferenceable(40) %this) #1 comdat align 2 {
entry:
  %this.addr = alloca ptr, align 8
  store ptr %this, ptr %this.addr, align 8, !tbaa !3
  %this1 = load ptr, ptr %this.addr, align 8
  %_M_header = getelementptr inbounds nuw %"struct.std::_Rb_tree_header", ptr %this1, i32 0, i32 0
  %_M_parent = getelementptr inbounds nuw %"struct.std::_Rb_tree_node_base", ptr %_M_header, i32 0, i32 1
  store ptr null, ptr %_M_parent, align 8, !tbaa !129
  %_M_header2 = getelementptr inbounds nuw %"struct.std::_Rb_tree_header", ptr %this1, i32 0, i32 0
  %_M_header3 = getelementptr inbounds nuw %"struct.std::_Rb_tree_header", ptr %this1, i32 0, i32 0
  %_M_left = getelementptr inbounds nuw %"struct.std::_Rb_tree_node_base", ptr %_M_header3, i32 0, i32 2
  store ptr %_M_header2, ptr %_M_left, align 8, !tbaa !130
  %_M_header4 = getelementptr inbounds nuw %"struct.std::_Rb_tree_header", ptr %this1, i32 0, i32 0
  %_M_header5 = getelementptr inbounds nuw %"struct.std::_Rb_tree_header", ptr %this1, i32 0, i32 0
  %_M_right = getelementptr inbounds nuw %"struct.std::_Rb_tree_node_base", ptr %_M_header5, i32 0, i32 3
  store ptr %_M_header4, ptr %_M_right, align 8, !tbaa !131
  %_M_node_count = getelementptr inbounds nuw %"struct.std::_Rb_tree_header", ptr %this1, i32 0, i32 1
  store i64 0, ptr %_M_node_count, align 8, !tbaa !132
  ret void
}

; Function Attrs: mustprogress nounwind uwtable
define linkonce_odr noundef ptr @_ZNSt8_Rb_treeIN8QuantLib4DateESt4pairIKS1_St3mapIN5boost10shared_ptrINS0_17StrikedTypePayoffEEEdSt4lessIS8_ESaIS2_IKS8_dEEEESt10_Select1stISF_ES9_IS1_ESaISF_EE8_M_beginEv(ptr noundef nonnull align 8 dereferenceable(48) %this) #1 comdat align 2 {
entry:
  %this.addr = alloca ptr, align 8
  store ptr %this, ptr %this.addr, align 8, !tbaa !3
  %this1 = load ptr, ptr %this.addr, align 8
  %call = call noundef ptr @_ZNKSt8_Rb_treeIN8QuantLib4DateESt4pairIKS1_St3mapIN5boost10shared_ptrINS0_17StrikedTypePayoffEEEdSt4lessIS8_ESaIS2_IKS8_dEEEESt10_Select1stISF_ES9_IS1_ESaISF_EE9_M_mbeginEv(ptr noundef nonnull align 8 dereferenceable(48) %this1) #16
  ret ptr %call
}

; Function Attrs: mustprogress nounwind uwtable
define linkonce_odr void @_ZNSt8_Rb_treeIN8QuantLib4DateESt4pairIKS1_St3mapIN5boost10shared_ptrINS0_17StrikedTypePayoffEEEdSt4lessIS8_ESaIS2_IKS8_dEEEESt10_Select1stISF_ES9_IS1_ESaISF_EE5clearEv(ptr noundef nonnull align 8 dereferenceable(48) %this) #1 comdat align 2 personality ptr @__gxx_personality_v0 {
entry:
  %this.addr = alloca ptr, align 8
  store ptr %this, ptr %this.addr, align 8, !tbaa !3
  %this1 = load ptr, ptr %this.addr, align 8
  %call = call noundef ptr @_ZNSt8_Rb_treeIN8QuantLib4DateESt4pairIKS1_St3mapIN5boost10shared_ptrINS0_17StrikedTypePayoffEEEdSt4lessIS8_ESaIS2_IKS8_dEEEESt10_Select1stISF_ES9_IS1_ESaISF_EE8_M_beginEv(ptr noundef nonnull align 8 dereferenceable(48) %this1) #16
  invoke void @_ZNSt8_Rb_treeIN8QuantLib4DateESt4pairIKS1_St3mapIN5boost10shared_ptrINS0_17StrikedTypePayoffEEEdSt4lessIS8_ESaIS2_IKS8_dEEEESt10_Select1stISF_ES9_IS1_ESaISF_EE8_M_eraseEPSt13_Rb_tree_nodeISF_E(ptr noundef nonnull align 8 dereferenceable(48) %this1, ptr noundef %call)
          to label %invoke.cont unwind label %terminate.lpad

invoke.cont:                                      ; preds = %entry
  %_M_impl = getelementptr inbounds nuw %"class.std::_Rb_tree.20", ptr %this1, i32 0, i32 0
  %add.ptr = getelementptr inbounds i8, ptr %_M_impl, i64 8
  call void @_ZNSt15_Rb_tree_header8_M_resetEv(ptr noundef nonnull align 8 dereferenceable(40) %add.ptr)
  ret void

terminate.lpad:                                   ; preds = %entry
  %0 = landingpad { ptr, i32 }
          catch ptr null
  %1 = extractvalue { ptr, i32 } %0, 0
  call void @__clang_call_terminate(ptr %1) #23
  unreachable
}

; Function Attrs: mustprogress uwtable
define linkonce_odr void @_ZN8QuantLib13GenericEngineINS_6Option9argumentsENS_14OneAssetOption7resultsEE6updateEv(ptr noundef nonnull align 8 dereferenceable(336) %this) unnamed_addr #2 comdat align 2 {
entry:
  %this.addr = alloca ptr, align 8
  store ptr %this, ptr %this.addr, align 8, !tbaa !3
  %this1 = load ptr, ptr %this.addr, align 8
  call void @_ZN8QuantLib10Observable15notifyObserversEv(ptr noundef nonnull align 8 dereferenceable(56) %this1)
  ret void
}

; Function Attrs: mustprogress nounwind uwtable
define linkonce_odr void @_ZNSt3mapIN8QuantLib4DateES_IN5boost10shared_ptrINS0_17StrikedTypePayoffEEEdSt4lessIS5_ESaISt4pairIKS5_dEEES6_IS1_ESaIS8_IKS1_SC_EEE5clearEv(ptr noundef nonnull align 8 dereferenceable(48) %this) #1 comdat align 2 {
entry:
  %this.addr = alloca ptr, align 8
  store ptr %this, ptr %this.addr, align 8, !tbaa !3
  %this1 = load ptr, ptr %this.addr, align 8
  %_M_t = getelementptr inbounds nuw %"class.std::map.19", ptr %this1, i32 0, i32 0
  call void @_ZNSt8_Rb_treeIN8QuantLib4DateESt4pairIKS1_St3mapIN5boost10shared_ptrINS0_17StrikedTypePayoffEEEdSt4lessIS8_ESaIS2_IKS8_dEEEESt10_Select1stISF_ES9_IS1_ESaISF_EE5clearEv(ptr noundef nonnull align 8 dereferenceable(48) %_M_t) #16
  ret void
}

; Function Attrs: mustprogress uwtable
define void @_ZN8QuantLib9FFTEngine6updateEv(ptr noundef nonnull align 8 dereferenceable(408) %this) unnamed_addr #2 align 2 {
entry:
  %this.addr = alloca ptr, align 8
  store ptr %this, ptr %this.addr, align 8, !tbaa !3
  %this1 = load ptr, ptr %this.addr, align 8
  %resultMap_ = getelementptr inbounds nuw %"class.QuantLib::FFTEngine", ptr %this1, i32 0, i32 3
  call void @_ZNSt3mapIN8QuantLib4DateES_IN5boost10shared_ptrINS0_17StrikedTypePayoffEEEdSt4lessIS5_ESaISt4pairIKS5_dEEES6_IS1_ESaIS8_IKS1_SC_EEE5clearEv(ptr noundef nonnull align 8 dereferenceable(48) %resultMap_) #16
  call void @_ZN8QuantLib13GenericEngineINS_6Option9argumentsENS_14OneAssetOption7resultsEE6updateEv(ptr noundef nonnull align 8 dereferenceable(336) %this1)
  ret void
}