; Function Attrs: mustprogress uwtable
define void @_ZN8QuantLib9FFTEngine6updateEv(ptr noundef nonnull align 8 dereferenceable(408) %this) unnamed_addr #8 align 2 personality ptr @__gxx_personality_v0 {
entry:
  %resultMap_ = getelementptr inbounds nuw i8, ptr %this, i64 360
  %_M_parent.i.i.i.i = getelementptr inbounds i8, ptr %this, i64 376
  %0 = load ptr, ptr %_M_parent.i.i.i.i, align 8, !tbaa !13
  invoke void @_ZNSt8_Rb_treeIN8QuantLib4DateESt4pairIKS1_St3mapIN5boost10shared_ptrINS0_17StrikedTypePayoffEEEdSt4lessIS8_ESaIS2_IKS8_dEEEESt10_Select1stISF_ES9_IS1_ESaISF_EE8_M_eraseEPSt13_Rb_tree_nodeISF_E(ptr noundef nonnull align 8 dereferenceable(48) %resultMap_, ptr noundef %0)
          to label %_ZNSt3mapIN8QuantLib4DateES_IN5boost10shared_ptrINS0_17StrikedTypePayoffEEEdSt4lessIS5_ESaISt4pairIKS5_dEEES6_IS1_ESaIS8_IKS1_SC_EEE5clearEv.exit unwind label %terminate.lpad.i.i

terminate.lpad.i.i:                               ; preds = %entry
  %1 = landingpad { ptr, i32 }
          catch ptr null
  %2 = extractvalue { ptr, i32 } %1, 0
  tail call void @__clang_call_terminate(ptr %2) #28
  unreachable

_ZNSt3mapIN8QuantLib4DateES_IN5boost10shared_ptrINS0_17StrikedTypePayoffEEEdSt4lessIS5_ESaISt4pairIKS5_dEEES6_IS1_ESaIS8_IKS1_SC_EEE5clearEv.exit: ; preds = %entry
  %add.ptr.i.i = getelementptr inbounds i8, ptr %this, i64 368
  store ptr null, ptr %_M_parent.i.i.i.i, align 8, !tbaa !13
  %_M_left.i.i.i = getelementptr inbounds i8, ptr %this, i64 384
  store ptr %add.ptr.i.i, ptr %_M_left.i.i.i, align 8, !tbaa !14
  %_M_right.i.i.i = getelementptr inbounds i8, ptr %this, i64 392
  store ptr %add.ptr.i.i, ptr %_M_right.i.i.i, align 8, !tbaa !15
  %_M_node_count.i.i.i = getelementptr inbounds i8, ptr %this, i64 400
  store i64 0, ptr %_M_node_count.i.i.i, align 8, !tbaa !16
  tail call void @_ZN8QuantLib10Observable15notifyObserversEv(ptr noundef nonnull align 8 dereferenceable(56) %this)
  ret void
}